(dp0
S'ts_acc'
p1
(lp2
(lp3
cnumpy.core.multiarray
scalar
p4
(cnumpy
dtype
p5
(S'f8'
p6
I0
I1
tp7
Rp8
(I3
S'<'
p9
NNNI-1
I-1
I0
tp10
bS'ffffff\xe6?'
p11
tp12
Rp13
ag4
(g8
S'\n\xd7\xa3p=\n\xe7?'
p14
tp15
Rp16
aasS'ts_loss'
p17
(lp18
(lp19
g4
(g8
S'\x9a\t\x05Q\x91\x03\xde?'
p20
tp21
Rp22
ag4
(g8
S"\xdd*\x87\xe1\xa3'\xe0?"
p23
tp24
Rp25
aasS'tr_acc'
p26
(lp27
(lp28
g4
(g8
S'\x98\xc0v\r\xd9\xdb\xe7?'
p29
tp30
Rp31
ag4
(g8
S'\x83T\xe6\xd0d\xd4\xe7?'
p32
tp33
Rp34
aasS'tr_loss'
p35
(lp36
(lp37
g4
(g8
S'r=\xd2\x84\xb65\xde?'
p38
tp39
Rp40
ag4
(g8
S'i\xbf2\xc7x\x9d\xdd?'
p41
tp42
Rp43
aas.